; Function Attrs: mustprogress nounwind uwtable
define hidden void @_ZN8PSOldGen11post_resizeEv(ptr noundef nonnull align 8 dereferenceable(128) %0) local_unnamed_addr #0 align 2 {
  %2 = getelementptr inbounds i8, ptr %0, i64 8
  %3 = load ptr, ptr %2, align 8
  %4 = getelementptr inbounds i8, ptr %3, i64 32
  %5 = load ptr, ptr %4, align 8
  %6 = getelementptr inbounds i8, ptr %3, i64 40
  %7 = load ptr, ptr %6, align 8
  %8 = ptrtoint ptr %7 to i64
  %9 = ptrtoint ptr %5 to i64
  %10 = sub i64 %8, %9
  %11 = lshr i64 %10, 3
  %12 = getelementptr inbounds i8, ptr %0, i64 16
  tail call void @_ZN16ObjectStartArray18set_covered_regionE9MemRegion(ptr noundef nonnull align 8 dereferenceable(72) %12, ptr %5, i64 %11) #7
  %13 = load ptr, ptr @_ZN8Universe14_collectedHeapE, align 8
  %14 = tail call noundef ptr @_ZN20ParallelScavengeHeap10card_tableEv(ptr noundef nonnull align 8 dereferenceable(264) %13) #7
  tail call void @_ZN9CardTable21resize_covered_regionE9MemRegion(ptr noundef nonnull align 8 dereferenceable(88) %14, ptr %5, i64 %11) #7
  %15 = tail call align 8 ptr @llvm.threadlocal.address.p0(ptr align 8 @_ZN6Thread12_thr_currentE)
  %16 = load ptr, ptr %15, align 8
  %17 = load ptr, ptr %16, align 8
  %18 = getelementptr inbounds i8, ptr %17, i64 48
  %19 = load ptr, ptr %18, align 8
  %20 = tail call noundef zeroext i1 %19(ptr noundef nonnull align 8 dereferenceable(888) %16) #7
  %21 = load ptr, ptr @_ZN8Universe14_collectedHeapE, align 8
  %22 = getelementptr inbounds i8, ptr %21, i64 144
  %23 = select i1 %20, ptr %22, ptr null
  %24 = getelementptr inbounds i8, ptr %0, i64 88
  %25 = load ptr, ptr %24, align 8
  %26 = load ptr, ptr %25, align 8
  %27 = getelementptr inbounds i8, ptr %26, i64 24
  %28 = load ptr, ptr %27, align 8
  tail call void %28(ptr noundef nonnull align 8 dereferenceable(56) %25, ptr %5, i64 %11, i1 noundef zeroext false, i1 noundef zeroext false, i1 noundef zeroext true, ptr noundef %23) #7
  ret void
}